; Function Attrs: mustprogress nofree norecurse nosync nounwind willreturn memory(read, inaccessiblemem: none) uwtable
define internal range(i32 0, 2) i32 @_find_node_state_with_alloc_gres(ptr noundef readonly captures(none) %0, ptr readnone captures(none) %1) #1 {
  %3 = getelementptr inbounds nuw i8, ptr %0, i64 8
  %4 = load ptr, ptr %3, align 8
  %5 = getelementptr inbounds nuw i8, ptr %4, i64 48
  %6 = load i64, ptr %5, align 8
  %.not = icmp ne i64 %6, 0
  %. = zext i1 %.not to i32
  ret i32 %.
}